; Function Attrs: mustprogress nofree norecurse nosync nounwind willreturn memory(write, argmem: readwrite, inaccessiblemem: none) uwtable
define hidden void @_ZN3smt17theory_array_base12reset_queuesEv(ptr nocapture noundef nonnull readonly align 8 dereferenceable(249) %this) local_unnamed_addr #9 align 2 {
entry:
  %m_axiom1_todo = getelementptr inbounds i8, ptr %this, i64 72
  %0 = load ptr, ptr %m_axiom1_todo, align 8
  %tobool.not.i = icmp eq ptr %0, null
  br i1 %tobool.not.i, label %_ZN6vectorIPN3smt5enodeELb0EjE5resetEv.exit, label %if.then.i

if.then.i:                                        ; preds = %entry
  %arrayidx.i = getelementptr inbounds i8, ptr %0, i64 -4
  store i32 0, ptr %arrayidx.i, align 4
  br label %_ZN6vectorIPN3smt5enodeELb0EjE5resetEv.exit

_ZN6vectorIPN3smt5enodeELb0EjE5resetEv.exit:      ; preds = %entry, %if.then.i
  %m_axiom2_todo = getelementptr inbounds i8, ptr %this, i64 80
  %1 = load ptr, ptr %m_axiom2_todo, align 8
  %tobool.not.i1 = icmp eq ptr %1, null
  br i1 %tobool.not.i1, label %_ZN6vectorISt4pairIPN3smt5enodeES3_ELb0EjE5resetEv.exit, label %if.then.i2

if.then.i2:                                       ; preds = %_ZN6vectorIPN3smt5enodeELb0EjE5resetEv.exit
  %arrayidx.i3 = getelementptr inbounds i8, ptr %1, i64 -4
  store i32 0, ptr %arrayidx.i3, align 4
  br label %_ZN6vectorISt4pairIPN3smt5enodeES3_ELb0EjE5resetEv.exit

_ZN6vectorISt4pairIPN3smt5enodeES3_ELb0EjE5resetEv.exit: ; preds = %_ZN6vectorIPN3smt5enodeELb0EjE5resetEv.exit, %if.then.i2
  %m_extensionality_todo = getelementptr inbounds i8, ptr %this, i64 88
  %2 = load ptr, ptr %m_extensionality_todo, align 8
  %tobool.not.i4 = icmp eq ptr %2, null
  br i1 %tobool.not.i4, label %_ZN6vectorISt4pairIPN3smt5enodeES3_ELb0EjE5resetEv.exit7, label %if.then.i5

if.then.i5:                                       ; preds = %_ZN6vectorISt4pairIPN3smt5enodeES3_ELb0EjE5resetEv.exit
  %arrayidx.i6 = getelementptr inbounds i8, ptr %2, i64 -4
  store i32 0, ptr %arrayidx.i6, align 4
  br label %_ZN6vectorISt4pairIPN3smt5enodeES3_ELb0EjE5resetEv.exit7

_ZN6vectorISt4pairIPN3smt5enodeES3_ELb0EjE5resetEv.exit7: ; preds = %_ZN6vectorISt4pairIPN3smt5enodeES3_ELb0EjE5resetEv.exit, %if.then.i5
  %m_congruent_todo = getelementptr inbounds i8, ptr %this, i64 96
  %3 = load ptr, ptr %m_congruent_todo, align 8
  %tobool.not.i8 = icmp eq ptr %3, null
  br i1 %tobool.not.i8, label %_ZN6vectorISt4pairIPN3smt5enodeES3_ELb0EjE5resetEv.exit11, label %if.then.i9

if.then.i9:                                       ; preds = %_ZN6vectorISt4pairIPN3smt5enodeES3_ELb0EjE5resetEv.exit7
  %arrayidx.i10 = getelementptr inbounds i8, ptr %3, i64 -4
  store i32 0, ptr %arrayidx.i10, align 4
  br label %_ZN6vectorISt4pairIPN3smt5enodeES3_ELb0EjE5resetEv.exit11

_ZN6vectorISt4pairIPN3smt5enodeES3_ELb0EjE5resetEv.exit11: ; preds = %_ZN6vectorISt4pairIPN3smt5enodeES3_ELb0EjE5resetEv.exit7, %if.then.i9
  ret void
}